; Function Attrs: mustprogress nofree nounwind null_pointer_is_valid sspstrong willreturn memory(read, inaccessiblemem: none) uwtable
define internal range(i32 0, 2) i32 @v9_v10_tmplt_table_equal(ptr noundef readonly captures(none) %0, ptr noundef readonly captures(none) %1) #4 {
  %3 = getelementptr inbounds nuw i8, ptr %0, i64 8
  %4 = getelementptr inbounds nuw i8, ptr %1, i64 8
  %5 = load i32, ptr %3, align 8
  %6 = load i32, ptr %4, align 8
  %or.cond.not = icmp eq i32 %5, %6
  br i1 %or.cond.not, label %7, label %cmp_address.exit.thread

7:                                                ; preds = %2
  %8 = getelementptr inbounds nuw i8, ptr %0, i64 12
  %9 = load i32, ptr %8, align 4
  %10 = getelementptr inbounds nuw i8, ptr %1, i64 12
  %11 = load i32, ptr %10, align 4
  %or.cond22.not = icmp eq i32 %9, %11
  br i1 %or.cond22.not, label %12, label %cmp_address.exit.thread

12:                                               ; preds = %7
  %13 = icmp eq i32 %9, 0
  br i1 %13, label %cmp_address.exit.thread17, label %cmp_address.exit

cmp_address.exit:                                 ; preds = %12
  %14 = getelementptr inbounds nuw i8, ptr %0, i64 16
  %15 = load ptr, ptr %14, align 8
  %16 = getelementptr inbounds nuw i8, ptr %1, i64 16
  %17 = load ptr, ptr %16, align 8
  %18 = sext i32 %9 to i64
  %bcmp = tail call i32 @bcmp(ptr %15, ptr %17, i64 %18)
  %19 = icmp eq i32 %bcmp, 0
  br i1 %19, label %cmp_address.exit.thread17, label %cmp_address.exit.thread

cmp_address.exit.thread17:                        ; preds = %12, %cmp_address.exit
  %20 = getelementptr inbounds nuw i8, ptr %0, i64 32
  %21 = load i32, ptr %20, align 8
  %22 = getelementptr inbounds nuw i8, ptr %1, i64 32
  %23 = load i32, ptr %22, align 8
  %24 = icmp eq i32 %21, %23
  br i1 %24, label %25, label %cmp_address.exit.thread

25:                                               ; preds = %cmp_address.exit.thread17
  %26 = getelementptr inbounds nuw i8, ptr %0, i64 40
  %27 = getelementptr inbounds nuw i8, ptr %1, i64 40
  %28 = load i32, ptr %26, align 8
  %29 = load i32, ptr %27, align 8
  %or.cond23.not = icmp eq i32 %28, %29
  br i1 %or.cond23.not, label %30, label %cmp_address.exit.thread

30:                                               ; preds = %25
  %31 = getelementptr inbounds nuw i8, ptr %0, i64 44
  %32 = load i32, ptr %31, align 4
  %33 = getelementptr inbounds nuw i8, ptr %1, i64 44
  %34 = load i32, ptr %33, align 4
  %or.cond24.not = icmp eq i32 %32, %34
  br i1 %or.cond24.not, label %35, label %cmp_address.exit.thread

35:                                               ; preds = %30
  %36 = icmp eq i32 %32, 0
  br i1 %36, label %cmp_address.exit15.thread20, label %cmp_address.exit15

cmp_address.exit15:                               ; preds = %35
  %37 = getelementptr inbounds nuw i8, ptr %0, i64 48
  %38 = load ptr, ptr %37, align 8
  %39 = getelementptr inbounds nuw i8, ptr %1, i64 48
  %40 = load ptr, ptr %39, align 8
  %41 = sext i32 %32 to i64
  %bcmp25 = tail call i32 @bcmp(ptr %38, ptr %40, i64 %41)
  %42 = icmp eq i32 %bcmp25, 0
  br i1 %42, label %cmp_address.exit15.thread20, label %cmp_address.exit.thread

cmp_address.exit15.thread20:                      ; preds = %35, %cmp_address.exit15
  %43 = getelementptr inbounds nuw i8, ptr %0, i64 64
  %44 = load i32, ptr %43, align 8
  %45 = getelementptr inbounds nuw i8, ptr %1, i64 64
  %46 = load i32, ptr %45, align 8
  %47 = icmp eq i32 %44, %46
  br i1 %47, label %48, label %cmp_address.exit.thread

48:                                               ; preds = %cmp_address.exit15.thread20
  %49 = getelementptr inbounds nuw i8, ptr %0, i64 68
  %50 = load i32, ptr %49, align 4
  %51 = getelementptr inbounds nuw i8, ptr %1, i64 68
  %52 = load i32, ptr %51, align 4
  %53 = icmp eq i32 %50, %52
  br i1 %53, label %54, label %cmp_address.exit.thread

54:                                               ; preds = %48
  %55 = getelementptr inbounds nuw i8, ptr %0, i64 72
  %56 = load i16, ptr %55, align 8
  %57 = getelementptr inbounds nuw i8, ptr %1, i64 72
  %58 = load i16, ptr %57, align 8
  %59 = icmp eq i16 %56, %58
  %60 = zext i1 %59 to i32
  br label %cmp_address.exit.thread

cmp_address.exit.thread:                          ; preds = %30, %25, %7, %2, %54, %48, %cmp_address.exit15.thread20, %cmp_address.exit15, %cmp_address.exit.thread17, %cmp_address.exit
  %61 = phi i32 [ 0, %48 ], [ 0, %cmp_address.exit15.thread20 ], [ 0, %cmp_address.exit15 ], [ 0, %cmp_address.exit.thread17 ], [ 0, %cmp_address.exit ], [ %60, %54 ], [ 0, %2 ], [ 0, %7 ], [ 0, %25 ], [ 0, %30 ]
  ret i32 %61
}